(((lp1
(lp2
I81
aI31
aI76
aI50
aI54
aI57
aI92
aI16
aI67
aI1
aI92
aI49
aI38
aI92
aI53
aI66
aI23
aI92
aI89
aI42
aI34
aI52
aa(lp3
I86
aI9
aI57
aI61
aI66
aI79
aI25
aI33
aI8
aI92
aI78
aI57
aI37
aI26
aI42
aI92
aI4
aI17
aI82
aI44
aI1
aI92
aI47
aI50
aI68
aI52
aa(lp4
I91
aI20
aI8
aI63
aI70
aI10
aI15
aI0
aI2
aI76
aI92
aI88
aI42
aI22
aI71
aI14
aI98
aI8
aI80
aI92
aI96
aI12
aI15
aI8
aI32
aI71
aI97
aI52
aa(lp5
I19
aI62
aI73
aI31
aI93
aI100
aI58
aI98
aI87
aI36
aI92
aI65
aI26
aI42
aI92
aI21
aI52
aa(lp6
I83
aI31
aI36
aI18
aI76
aI71
aI26
aI27
aI35
aI24
aI99
aI52
aa(lp7
I83
aI75
aI93
aI46
aI94
aI6
aI92
aI56
aI52
aa(lp8
I74
aI31
aI51
aI72
aI15
aI59
aI57
aI61
aI13
aI52
aa(lp9
I3
aI39
aI7
aI10
aI15
aI5
aI55
aI11
aI60
aI63
aI45
aI52
aa(lp10
I85
aI15
aI101
aI92
aI101
aI77
aI84
aI69
aI15
aI46
aI92
aI46
aI52
aa(lp11
I29
aI28
aI30
aI41
aI48
aI93
aI64
aI90
aI95
aI43
aI40
aI52
aa(lp12
(lp13
I1
aI0
aI0
aI1
aI0
aI1
aI1
aI0
aI0
aI1
aI1
aI1
aI1
aI1
aI1
aI1
aI1
aI1
aI1
aI1
aI1
aI1
aa(lp14
I1
aI1
aI1
aI1
aI1
aI0
aI1
aI0
aI1
aI1
aI1
aI1
aI0
aI0
aI1
aI1
aI1
aI1
aI0
aI0
aI1
aI1
aI1
aI1
aI1
aI1
aa(lp15
I1
aI1
aI1
aI1
aI1
aI1
aI1
aI1
aI0
aI0
aI1
aI0
aI1
aI1
aI1
aI1
aI1
aI1
aI0
aI1
aI1
aI0
aI1
aI1
aI0
aI0
aI0
aI1
aa(lp16
I1
aI1
aI1
aI1
aI1
aI1
aI1
aI1
aI1
aI0
aI0
aI0
aI0
aI0
aI0
aI0
aI1
aa(lp17
I1
aI1
aI0
aI1
aI0
aI1
aI1
aI1
aI1
aI1
aI1
aI1
aa(lp18
I1
aI0
aI1
aI0
aI1
aI1
aI1
aI1
aI1
aa(lp19
I1
aI1
aI1
aI0
aI1
aI1
aI1
aI1
aI0
aI1
aa(lp20
I0
aI0
aI1
aI1
aI1
aI1
aI1
aI1
aI1
aI1
aI1
aI1
aa(lp21
I0
aI0
aI0
aI0
aI0
aI0
aI0
aI0
aI0
aI0
aI0
aI0
aI1
aa(lp22
I1
aI1
aI1
aI1
aI0
aI1
aI1
aI0
aI0
aI0
aI0
aI1
aatp23
((lp24
(lp25
I81
aI31
aI76
aI50
aI54
aI57
aI92
aI16
aI67
aI1
aI92
aI49
aI38
aI92
aI53
aI66
aI23
aI92
aI89
aI42
aI34
aI52
aa(lp26
I86
aI9
aI57
aI61
aI66
aI79
aI25
aI33
aI8
aI92
aI78
aI57
aI37
aI26
aI42
aI92
aI4
aI17
aI82
aI44
aI1
aI92
aI47
aI50
aI68
aI52
aa(lp27
I91
aI20
aI8
aI63
aI70
aI10
aI15
aI0
aI2
aI76
aI92
aI88
aI42
aI22
aI71
aI14
aI98
aI8
aI80
aI92
aI96
aI12
aI15
aI8
aI32
aI71
aI97
aI52
aa(lp28
I19
aI62
aI73
aI31
aI93
aI100
aI58
aI98
aI87
aI36
aI92
aI65
aI26
aI42
aI92
aI21
aI52
aa(lp29
I83
aI31
aI36
aI18
aI76
aI71
aI26
aI27
aI35
aI24
aI99
aI52
aa(lp30
I83
aI75
aI93
aI46
aI94
aI6
aI92
aI56
aI52
aa(lp31
I74
aI31
aI51
aI72
aI15
aI59
aI57
aI61
aI13
aI52
aa(lp32
I3
aI39
aI7
aI10
aI15
aI5
aI55
aI11
aI60
aI63
aI45
aI52
aa(lp33
I85
aI15
aI101
aI92
aI101
aI77
aI84
aI69
aI15
aI46
aI92
aI46
aI52
aa(lp34
I29
aI28
aI30
aI41
aI48
aI93
aI64
aI90
aI95
aI43
aI40
aI52
aa(lp35
(lp36
I1
aI1
aI1
aI1
aI1
aI1
aI1
aI1
aI1
aI1
aI1
aI1
aI1
aI1
aI1
aI1
aI1
aI1
aI1
aI1
aI1
aI1
aa(lp37
I1
aI1
aI1
aI1
aI1
aI1
aI1
aI1
aI1
aI1
aI1
aI1
aI1
aI1
aI1
aI1
aI1
aI1
aI1
aI1
aI1
aI1
aI1
aI1
aI1
aI1
aa(lp38
I1
aI1
aI1
aI1
aI1
aI1
aI1
aI1
aI1
aI1
aI1
aI1
aI1
aI1
aI1
aI1
aI1
aI1
aI1
aI1
aI1
aI1
aI1
aI1
aI1
aI1
aI1
aI1
aa(lp39
I1
aI1
aI1
aI1
aI1
aI1
aI1
aI1
aI1
aI1
aI1
aI1
aI1
aI1
aI1
aI1
aI1
aa(lp40
I1
aI1
aI1
aI1
aI1
aI1
aI1
aI1
aI1
aI1
aI1
aI1
aa(lp41
I1
aI1
aI1
aI1
aI1
aI1
aI1
aI1
aI1
aa(lp42
I1
aI1
aI1
aI1
aI1
aI1
aI1
aI1
aI1
aI1
aa(lp43
I1
aI1
aI1
aI1
aI1
aI1
aI1
aI1
aI1
aI1
aI1
aI1
aa(lp44
I1
aI1
aI1
aI1
aI1
aI1
aI1
aI1
aI1
aI1
aI1
aI1
aI1
aa(lp45
I1
aI1
aI1
aI1
aI1
aI1
aI1
aI1
aI1
aI1
aI1
aI1
aatp46
(dp47
S'ind2lemmas_tr'
p48
(lp49
S'just'
p50
aS'over'
p51
aS'rest'
p52
aS'Take'
p53
aS'committee'
p54
aS'go'
p55
aS'before'
p56
aS','
aS'to'
p57
aS'hope'
p58
aVdo
p59
aS'far'
p60
aS'choice'
p61
aVbreak
p62
aS'every'
p63
aS'not'
p64
aS'shadow'
p65
aVhearing
p66
aS'him'
p67
aS'Once'
p68
aS'solution'
p69
aS'bag'
p70
aS'each'
p71
aS'enhance'
p72
aS'some'
p73
aS'close'
p74
aS'out'
p75
aS'for'
p76
aS'colonial'
p77
aS'Questioning'
p78
aVboundary
p79
aVbe
p80
aS'drink'
p81
aS'attention'
p82
aS'agreement'
p83
aS'quite'
p84
aS'let'
p85
aVcome
p86
aS'by'
p87
aS'care'
p88
aS'box'
p89
aS'would'
p90
aS'of'
p91
aS's'
aS'place'
p92
aS'claim'
p93
aS'walk'
p94
aS'next'
p95
aS'open'
p96
aS'city'
p97
aS'little'
p98
aS'her'
p99
aS'.'
aVattack
p100
aS'doubt'
p101
aS'too'
p102
aS'meeting'
p103
aS'that'
p104
aS'BBC'
p105
aS'mine'
p106
aS'with'
p107
aS'he'
p108
aS'again'
p109
aS'this'
p110
aS'dangerous'
p111
aS'cat'
p112
aS'will'
p113
aS'cast'
p114
aS'while'
p115
aS'can'
p116
aS'problem'
p117
aS'and'
p118
aS'heart'
p119
aS'it'
p120
aS'It'
p121
aVhave
p122
aS'in'
p123
aS'if'
p124
aS'information'
p125
aS'pay'
p126
aS'make'
p127
aS'Delegates'
p128
aVtake
p129
aS'They'
p130
aS'you'
p131
aS'Do'
p132
aS'I'
aS'who'
p133
aVhand
p134
aVchance
p135
aS'Pandora'
p136
aS'The'
p137
aS'the'
p138
aS'a'
aS'shortly'
p139
aS"'"
aS'conscious'
p140
aS'drive'
p141
aS'person'
p142
aS'time'
p143
aS'senior'
p144
aS'talk'
p145
asS'ind2labels'
p146
(lp147
S'+'
aS'-'
astp148
.